; Function Attrs: nounwind uwtable
define dso_local ptr @Curl_fetch_addr(ptr noundef %0, ptr noundef readonly captures(none) %1, i32 noundef %2) local_unnamed_addr #0 {
  %4 = getelementptr inbounds nuw i8, ptr %0, i64 208
  %5 = load ptr, ptr %4, align 8
  %.not = icmp eq ptr %5, null
  br i1 %.not, label %8, label %6

6:                                                ; preds = %3
  %7 = tail call i32 @Curl_share_lock(ptr noundef nonnull %0, i32 noundef 3, i32 noundef 2) #12
  br label %8

8:                                                ; preds = %6, %3
  %9 = tail call fastcc ptr @fetch_addr(ptr noundef nonnull %0, ptr noundef %1, i32 noundef %2)
  %.not9 = icmp eq ptr %9, null
  br i1 %.not9, label %14, label %10

10:                                               ; preds = %8
  %11 = getelementptr inbounds nuw i8, ptr %9, i64 16
  %12 = load i64, ptr %11, align 8
  %13 = add nsw i64 %12, 1
  store i64 %13, ptr %11, align 8
  br label %14

14:                                               ; preds = %10, %8
  %15 = load ptr, ptr %4, align 8
  %.not10 = icmp eq ptr %15, null
  br i1 %.not10, label %18, label %16

16:                                               ; preds = %14
  %17 = tail call i32 @Curl_share_unlock(ptr noundef nonnull %0, i32 noundef 3) #12
  br label %18

18:                                               ; preds = %16, %14
  ret ptr %9
}